target datalayout = "e-m:e-p270:32:32-p271:32:32-p272:64:64-i64:64-i128:128-f80:128-n8:16:32:64-S128"
target triple = "x86_64-pc-linux-gnu"

%struct.URLContext = type { ptr, ptr, ptr, ptr, i32, i32, i32, i32, %struct.AVIOInterruptCB, i64, ptr, ptr, i32 }
%struct.AVIOInterruptCB = type { ptr, ptr }
%struct.CryptoContext = type { ptr, ptr, [4112 x i8], [4112 x i8], ptr, i32, i32, i32, i64, i32, i32, ptr, i32, ptr, i32, ptr, i32, ptr, i32, ptr, i32, ptr, i32, ptr, ptr, ptr, i32, [16 x i8], i32 }

@.str.11 = private unnamed_addr constant [39 x i8] c"Crypto: seek not supported for write\0D\0A\00", align 1
@.str.12 = private unnamed_addr constant [51 x i8] c"Crypto: seek_end - can't get file size (pos=%ld)\0D\0A\00", align 1
@.str.13 = private unnamed_addr constant [51 x i8] c"Crypto: no support for seek where 'whence' is %d\0D\0A\00", align 1
@.str.14 = private unnamed_addr constant [60 x i8] c"Crypto: nested protocol no support for seek or seek failed\0A\00", align 1
@.str.15 = private unnamed_addr constant [84 x i8] c"Crypto: discard read did not get all the bytes (%d remain) - read returned (%d)-%s\0A\00", align 1

; Function Attrs: inlinehint nounwind uwtable
define internal ptr @av_make_error_string(ptr noundef %0, i64 noundef %1, i32 noundef %2) #4 {
  %4 = alloca ptr, align 8
  %5 = alloca i64, align 8
  %6 = alloca i32, align 4
  store ptr %0, ptr %4, align 8, !tbaa !9
  store i64 %1, ptr %5, align 8, !tbaa !52
  store i32 %2, ptr %6, align 4, !tbaa !11
  %7 = load i32, ptr %6, align 4, !tbaa !11
  %8 = load ptr, ptr %4, align 8, !tbaa !9
  %9 = load i64, ptr %5, align 8, !tbaa !52
  %10 = call i32 @av_strerror(i32 noundef %7, ptr noundef %8, i64 noundef %9)
  %11 = load ptr, ptr %4, align 8, !tbaa !9
  ret ptr %11
}

; Function Attrs: inlinehint nounwind uwtable
define internal i64 @ffurl_seek(ptr noundef %0, i64 noundef %1, i32 noundef %2) #4 {
  %4 = alloca ptr, align 8
  %5 = alloca i64, align 8
  %6 = alloca i32, align 4
  store ptr %0, ptr %4, align 8, !tbaa !4
  store i64 %1, ptr %5, align 8, !tbaa !52
  store i32 %2, ptr %6, align 4, !tbaa !11
  %7 = load ptr, ptr %4, align 8, !tbaa !4
  %8 = load i64, ptr %5, align 8, !tbaa !52
  %9 = load i32, ptr %6, align 4, !tbaa !11
  %10 = call i64 @ffurl_seek2(ptr noundef %7, i64 noundef %8, i32 noundef %9)
  ret i64 %10
}

; Function Attrs: nounwind uwtable
define internal i64 @crypto_seek(ptr noundef %0, i64 noundef %1, i32 noundef %2) #0 {
  %4 = alloca i64, align 8
  %5 = alloca ptr, align 8
  %6 = alloca i64, align 8
  %7 = alloca i32, align 4
  %8 = alloca ptr, align 8
  %9 = alloca i64, align 8
  %10 = alloca i64, align 8
  %11 = alloca i32, align 4
  %12 = alloca [32 x i8], align 16
  %13 = alloca i32, align 4
  %14 = alloca i32, align 4
  %15 = alloca [64 x i8], align 1
  store ptr %0, ptr %5, align 8, !tbaa !4
  store i64 %1, ptr %6, align 8, !tbaa !52
  store i32 %2, ptr %7, align 4, !tbaa !11
  call void @llvm.lifetime.start.p0(i64 8, ptr %8) #6
  %16 = load ptr, ptr %5, align 8, !tbaa !4
  %17 = getelementptr inbounds nuw %struct.URLContext, ptr %16, i32 0, i32 2
  %18 = load ptr, ptr %17, align 8, !tbaa !16
  store ptr %18, ptr %8, align 8, !tbaa !22
  call void @llvm.lifetime.start.p0(i64 8, ptr %9) #6
  call void @llvm.lifetime.start.p0(i64 8, ptr %10) #6
  %19 = load ptr, ptr %8, align 8, !tbaa !22
  %20 = getelementptr inbounds nuw %struct.CryptoContext, ptr %19, i32 0, i32 9
  %21 = load i32, ptr %20, align 8, !tbaa !24
  %22 = and i32 %21, 2
  %23 = icmp ne i32 %22, 0
  br i1 %23, label %24, label %26

24:                                               ; preds = %3
  %25 = load ptr, ptr %5, align 8, !tbaa !4
  call void (ptr, i32, ptr, ...) @av_log(ptr noundef %25, i32 noundef 16, ptr noundef @.str.11)
  store i64 -29, ptr %4, align 8
  store i32 1, ptr %11, align 4
  br label %157

26:                                               ; preds = %3
  %27 = load ptr, ptr %8, align 8, !tbaa !22
  %28 = getelementptr inbounds nuw %struct.CryptoContext, ptr %27, i32 0, i32 10
  store i32 0, ptr %28, align 4, !tbaa !44
  %29 = load i32, ptr %7, align 4, !tbaa !11
  switch i32 %29, label %58 [
    i32 0, label %61
    i32 1, label %30
    i32 2, label %36
    i32 65536, label %52
  ]

30:                                               ; preds = %26
  %31 = load i64, ptr %6, align 8, !tbaa !52
  %32 = load ptr, ptr %8, align 8, !tbaa !22
  %33 = getelementptr inbounds nuw %struct.CryptoContext, ptr %32, i32 0, i32 8
  %34 = load i64, ptr %33, align 8, !tbaa !41
  %35 = add nsw i64 %31, %34
  store i64 %35, ptr %6, align 8, !tbaa !52
  br label %61

36:                                               ; preds = %26
  %37 = load ptr, ptr %8, align 8, !tbaa !22
  %38 = getelementptr inbounds nuw %struct.CryptoContext, ptr %37, i32 0, i32 1
  %39 = load ptr, ptr %38, align 8, !tbaa !35
  %40 = load i64, ptr %6, align 8, !tbaa !52
  %41 = call i64 @ffurl_seek(ptr noundef %39, i64 noundef %40, i32 noundef 65536)
  store i64 %41, ptr %10, align 8, !tbaa !52
  %42 = load i64, ptr %10, align 8, !tbaa !52
  %43 = icmp slt i64 %42, 0
  br i1 %43, label %44, label %48

44:                                               ; preds = %36
  %45 = load ptr, ptr %5, align 8, !tbaa !4
  %46 = load i64, ptr %6, align 8, !tbaa !52
  call void (ptr, i32, ptr, ...) @av_log(ptr noundef %45, i32 noundef 16, ptr noundef @.str.12, i64 noundef %46)
  %47 = load i64, ptr %10, align 8, !tbaa !52
  store i64 %47, ptr %4, align 8
  store i32 1, ptr %11, align 4
  br label %157

48:                                               ; preds = %36
  %49 = load i64, ptr %10, align 8, !tbaa !52
  %50 = load i64, ptr %6, align 8, !tbaa !52
  %51 = sub nsw i64 %49, %50
  store i64 %51, ptr %6, align 8, !tbaa !52
  br label %61

52:                                               ; preds = %26
  %53 = load ptr, ptr %8, align 8, !tbaa !22
  %54 = getelementptr inbounds nuw %struct.CryptoContext, ptr %53, i32 0, i32 1
  %55 = load ptr, ptr %54, align 8, !tbaa !35
  %56 = load i64, ptr %6, align 8, !tbaa !52
  %57 = call i64 @ffurl_seek(ptr noundef %55, i64 noundef %56, i32 noundef 65536)
  store i64 %57, ptr %4, align 8
  store i32 1, ptr %11, align 4
  br label %157

58:                                               ; preds = %26
  %59 = load ptr, ptr %5, align 8, !tbaa !4
  %60 = load i32, ptr %7, align 4, !tbaa !11
  call void (ptr, i32, ptr, ...) @av_log(ptr noundef %59, i32 noundef 16, ptr noundef @.str.13, i32 noundef %60)
  store i64 -22, ptr %4, align 8
  store i32 1, ptr %11, align 4
  br label %157

61:                                               ; preds = %48, %30, %26
  %62 = load ptr, ptr %8, align 8, !tbaa !22
  %63 = getelementptr inbounds nuw %struct.CryptoContext, ptr %62, i32 0, i32 7
  store i32 0, ptr %63, align 8, !tbaa !39
  %64 = load ptr, ptr %8, align 8, !tbaa !22
  %65 = getelementptr inbounds nuw %struct.CryptoContext, ptr %64, i32 0, i32 5
  store i32 0, ptr %65, align 8, !tbaa !42
  %66 = load ptr, ptr %8, align 8, !tbaa !22
  %67 = getelementptr inbounds nuw %struct.CryptoContext, ptr %66, i32 0, i32 6
  store i32 0, ptr %67, align 4, !tbaa !43
  %68 = load ptr, ptr %8, align 8, !tbaa !22
  %69 = getelementptr inbounds nuw %struct.CryptoContext, ptr %68, i32 0, i32 3
  %70 = getelementptr inbounds [4112 x i8], ptr %69, i64 0, i64 0
  %71 = load ptr, ptr %8, align 8, !tbaa !22
  %72 = getelementptr inbounds nuw %struct.CryptoContext, ptr %71, i32 0, i32 4
  store ptr %70, ptr %72, align 8, !tbaa !40
  %73 = load i64, ptr %6, align 8, !tbaa !52
  %74 = sdiv i64 %73, 16
  store i64 %74, ptr %9, align 8, !tbaa !52
  %75 = load i64, ptr %9, align 8, !tbaa !52
  %76 = icmp eq i64 %75, 0
  br i1 %76, label %77, label %90

77:                                               ; preds = %61
  %78 = load ptr, ptr %8, align 8, !tbaa !22
  %79 = getelementptr inbounds nuw %struct.CryptoContext, ptr %78, i32 0, i32 17
  %80 = load ptr, ptr %79, align 8, !tbaa !47
  %81 = load ptr, ptr %8, align 8, !tbaa !22
  %82 = getelementptr inbounds nuw %struct.CryptoContext, ptr %81, i32 0, i32 13
  %83 = load ptr, ptr %82, align 8, !tbaa !29
  %84 = load ptr, ptr %8, align 8, !tbaa !22
  %85 = getelementptr inbounds nuw %struct.CryptoContext, ptr %84, i32 0, i32 14
  %86 = load i32, ptr %85, align 8, !tbaa !30
  %87 = sext i32 %86 to i64
  call void @llvm.memcpy.p0.p0.i64(ptr align 1 %80, ptr align 1 %83, i64 %87, i1 false)
  %88 = load ptr, ptr %8, align 8, !tbaa !22
  %89 = getelementptr inbounds nuw %struct.CryptoContext, ptr %88, i32 0, i32 8
  store i64 0, ptr %89, align 8, !tbaa !41
  br label %97

90:                                               ; preds = %61
  %91 = load i64, ptr %9, align 8, !tbaa !52
  %92 = add nsw i64 %91, -1
  store i64 %92, ptr %9, align 8, !tbaa !52
  %93 = load i64, ptr %9, align 8, !tbaa !52
  %94 = mul nsw i64 %93, 16
  %95 = load ptr, ptr %8, align 8, !tbaa !22
  %96 = getelementptr inbounds nuw %struct.CryptoContext, ptr %95, i32 0, i32 8
  store i64 %94, ptr %96, align 8, !tbaa !41
  br label %97

97:                                               ; preds = %90, %77
  %98 = load ptr, ptr %8, align 8, !tbaa !22
  %99 = getelementptr inbounds nuw %struct.CryptoContext, ptr %98, i32 0, i32 1
  %100 = load ptr, ptr %99, align 8, !tbaa !35
  %101 = load ptr, ptr %8, align 8, !tbaa !22
  %102 = getelementptr inbounds nuw %struct.CryptoContext, ptr %101, i32 0, i32 8
  %103 = load i64, ptr %102, align 8, !tbaa !41
  %104 = call i64 @ffurl_seek(ptr noundef %100, i64 noundef %103, i32 noundef 0)
  store i64 %104, ptr %10, align 8, !tbaa !52
  %105 = load i64, ptr %10, align 8, !tbaa !52
  %106 = icmp slt i64 %105, 0
  br i1 %106, label %107, label %110

107:                                              ; preds = %97
  %108 = load ptr, ptr %5, align 8, !tbaa !4
  call void (ptr, i32, ptr, ...) @av_log(ptr noundef %108, i32 noundef 16, ptr noundef @.str.14)
  %109 = load i64, ptr %10, align 8, !tbaa !52
  store i64 %109, ptr %4, align 8
  store i32 1, ptr %11, align 4
  br label %157

110:                                              ; preds = %97
  %111 = load i64, ptr %6, align 8, !tbaa !52
  %112 = load ptr, ptr %8, align 8, !tbaa !22
  %113 = getelementptr inbounds nuw %struct.CryptoContext, ptr %112, i32 0, i32 8
  %114 = load i64, ptr %113, align 8, !tbaa !41
  %115 = sub nsw i64 %111, %114
  %116 = icmp ne i64 %115, 0
  br i1 %116, label %117, label %153

117:                                              ; preds = %110
  call void @llvm.lifetime.start.p0(i64 32, ptr %12) #6
  call void @llvm.lifetime.start.p0(i64 4, ptr %13) #6
  %118 = load i64, ptr %6, align 8, !tbaa !52
  %119 = load ptr, ptr %8, align 8, !tbaa !22
  %120 = getelementptr inbounds nuw %struct.CryptoContext, ptr %119, i32 0, i32 8
  %121 = load i64, ptr %120, align 8, !tbaa !41
  %122 = sub nsw i64 %118, %121
  %123 = trunc i64 %122 to i32
  store i32 %123, ptr %13, align 4, !tbaa !11
  call void @llvm.lifetime.start.p0(i64 4, ptr %14) #6
  br label %124

124:                                              ; preds = %135, %117
  %125 = load i32, ptr %13, align 4, !tbaa !11
  %126 = icmp sgt i32 %125, 0
  br i1 %126, label %127, label %139

127:                                              ; preds = %124
  %128 = load ptr, ptr %5, align 8, !tbaa !4
  %129 = getelementptr inbounds [32 x i8], ptr %12, i64 0, i64 0
  %130 = load i32, ptr %13, align 4, !tbaa !11
  %131 = call i32 @crypto_read(ptr noundef %128, ptr noundef %129, i32 noundef %130)
  store i32 %131, ptr %14, align 4, !tbaa !11
  %132 = load i32, ptr %14, align 4, !tbaa !11
  %133 = icmp slt i32 %132, 0
  br i1 %133, label %134, label %135

134:                                              ; preds = %127
  br label %139

135:                                              ; preds = %127
  %136 = load i32, ptr %14, align 4, !tbaa !11
  %137 = load i32, ptr %13, align 4, !tbaa !11
  %138 = sub nsw i32 %137, %136
  store i32 %138, ptr %13, align 4, !tbaa !11
  br label %124, !llvm.loop !53

139:                                              ; preds = %134, %124
  %140 = load i32, ptr %13, align 4, !tbaa !11
  %141 = icmp ne i32 %140, 0
  br i1 %141, label %142, label %149

142:                                              ; preds = %139
  %143 = load ptr, ptr %5, align 8, !tbaa !4
  %144 = load i32, ptr %13, align 4, !tbaa !11
  %145 = load i32, ptr %14, align 4, !tbaa !11
  call void @llvm.memset.p0.i64(ptr align 1 %15, i8 0, i64 64, i1 false)
  %146 = getelementptr inbounds [64 x i8], ptr %15, i64 0, i64 0
  %147 = load i32, ptr %14, align 4, !tbaa !11
  %148 = call ptr @av_make_error_string(ptr noundef %146, i64 noundef 64, i32 noundef %147)
  call void (ptr, i32, ptr, ...) @av_log(ptr noundef %143, i32 noundef 16, ptr noundef @.str.15, i32 noundef %144, i32 noundef %145, ptr noundef %148)
  store i64 -22, ptr %4, align 8
  store i32 1, ptr %11, align 4
  br label %150

149:                                              ; preds = %139
  store i32 0, ptr %11, align 4
  br label %150

150:                                              ; preds = %149, %142
  call void @llvm.lifetime.end.p0(i64 4, ptr %14) #6
  call void @llvm.lifetime.end.p0(i64 4, ptr %13) #6
  call void @llvm.lifetime.end.p0(i64 32, ptr %12) #6
  %151 = load i32, ptr %11, align 4
  switch i32 %151, label %157 [
    i32 0, label %152
  ]

152:                                              ; preds = %150
  br label %153

153:                                              ; preds = %152, %110
  %154 = load ptr, ptr %8, align 8, !tbaa !22
  %155 = getelementptr inbounds nuw %struct.CryptoContext, ptr %154, i32 0, i32 8
  %156 = load i64, ptr %155, align 8, !tbaa !41
  store i64 %156, ptr %4, align 8
  store i32 1, ptr %11, align 4
  br label %157

157:                                              ; preds = %153, %150, %107, %58, %52, %44, %24
  call void @llvm.lifetime.end.p0(i64 8, ptr %10) #6
  call void @llvm.lifetime.end.p0(i64 8, ptr %9) #6
  call void @llvm.lifetime.end.p0(i64 8, ptr %8) #6
  %158 = load i64, ptr %4, align 8
  ret i64 %158
}