; Function Attrs: nounwind uwtable
define internal i64 @crypto_seek(ptr noundef %0, i64 noundef %1, i32 noundef %2) #0 {
  %4 = alloca [32 x i8], align 16
  %5 = alloca [64 x i8], align 1
  %6 = getelementptr inbounds nuw i8, ptr %0, i64 16
  %7 = load ptr, ptr %6, align 8, !tbaa !4
  %8 = getelementptr inbounds nuw i8, ptr %7, i64 8272
  %9 = load i32, ptr %8, align 8, !tbaa !15
  %10 = and i32 %9, 2
  %.not = icmp eq i32 %10, 0
  br i1 %.not, label %12, label %11

11:                                               ; preds = %3
  tail call void (ptr, i32, ptr, ...) @av_log(ptr noundef nonnull %0, i32 noundef 16, ptr noundef nonnull @.str.11) #6
  br label %69

12:                                               ; preds = %3
  %13 = getelementptr inbounds nuw i8, ptr %7, i64 8276
  store i32 0, ptr %13, align 4, !tbaa !38
  switch i32 %2, label %30 [
    i32 0, label %31
    i32 1, label %14
    i32 2, label %18
    i32 65536, label %26
  ]

14:                                               ; preds = %12
  %15 = getelementptr inbounds nuw i8, ptr %7, i64 8264
  %16 = load i64, ptr %15, align 8, !tbaa !37
  %17 = add nsw i64 %16, %1
  br label %31

18:                                               ; preds = %12
  %19 = getelementptr inbounds nuw i8, ptr %7, i64 8
  %20 = load ptr, ptr %19, align 8, !tbaa !29
  %21 = tail call i64 @ffurl_seek2(ptr noundef %20, i64 noundef %1, i32 noundef 65536) #6
  %22 = icmp slt i64 %21, 0
  br i1 %22, label %23, label %24

23:                                               ; preds = %18
  tail call void (ptr, i32, ptr, ...) @av_log(ptr noundef nonnull %0, i32 noundef 16, ptr noundef nonnull @.str.12, i64 noundef %1) #6
  br label %69

24:                                               ; preds = %18
  %25 = sub nsw i64 %21, %1
  br label %31

26:                                               ; preds = %12
  %27 = getelementptr inbounds nuw i8, ptr %7, i64 8
  %28 = load ptr, ptr %27, align 8, !tbaa !29
  %29 = tail call i64 @ffurl_seek2(ptr noundef %28, i64 noundef %1, i32 noundef 65536) #6
  br label %69

30:                                               ; preds = %12
  tail call void (ptr, i32, ptr, ...) @av_log(ptr noundef nonnull %0, i32 noundef 16, ptr noundef nonnull @.str.13, i32 noundef %2) #6
  br label %69

31:                                               ; preds = %24, %14, %12
  %.059 = phi i64 [ %25, %24 ], [ %17, %14 ], [ %1, %12 ]
  %32 = getelementptr inbounds nuw i8, ptr %7, i64 8256
  store i32 0, ptr %32, align 8, !tbaa !33
  %33 = getelementptr inbounds nuw i8, ptr %7, i64 8248
  store i32 0, ptr %33, align 8, !tbaa !35
  %34 = getelementptr inbounds nuw i8, ptr %7, i64 8252
  store i32 0, ptr %34, align 4, !tbaa !34
  %35 = getelementptr inbounds nuw i8, ptr %7, i64 4128
  %36 = getelementptr inbounds nuw i8, ptr %7, i64 8240
  store ptr %35, ptr %36, align 8, !tbaa !36
  %.059.off = add i64 %.059, 15
  %37 = icmp ult i64 %.059.off, 31
  br i1 %37, label %38, label %46

38:                                               ; preds = %31
  %39 = getelementptr inbounds nuw i8, ptr %7, i64 8328
  %40 = load ptr, ptr %39, align 8, !tbaa !39
  %41 = getelementptr inbounds nuw i8, ptr %7, i64 8296
  %42 = load ptr, ptr %41, align 8, !tbaa !23
  %43 = getelementptr inbounds nuw i8, ptr %7, i64 8304
  %44 = load i32, ptr %43, align 8, !tbaa !24
  %45 = sext i32 %44 to i64
  tail call void @llvm.memcpy.p0.p0.i64(ptr align 1 %40, ptr align 1 %42, i64 %45, i1 false)
  br label %50

46:                                               ; preds = %31
  %47 = sdiv i64 %.059, 16
  %48 = shl nsw i64 %47, 4
  %49 = add i64 %48, -16
  br label %50

50:                                               ; preds = %46, %38
  %.sink = phi i64 [ 0, %38 ], [ %49, %46 ]
  %51 = getelementptr inbounds nuw i8, ptr %7, i64 8264
  store i64 %.sink, ptr %51, align 8, !tbaa !37
  %52 = getelementptr inbounds nuw i8, ptr %7, i64 8
  %53 = load ptr, ptr %52, align 8, !tbaa !29
  %54 = tail call i64 @ffurl_seek2(ptr noundef %53, i64 noundef %.sink, i32 noundef 0) #6
  %55 = icmp slt i64 %54, 0
  br i1 %55, label %56, label %57

56:                                               ; preds = %50
  tail call void (ptr, i32, ptr, ...) @av_log(ptr noundef nonnull %0, i32 noundef 16, ptr noundef nonnull @.str.14) #6
  br label %69

57:                                               ; preds = %50
  %58 = load i64, ptr %51, align 8, !tbaa !37
  %.not66 = icmp eq i64 %.059, %58
  br i1 %.not66, label %69, label %59

59:                                               ; preds = %57
  call void @llvm.lifetime.start.p0(i64 32, ptr nonnull %4) #6
  %60 = sub nsw i64 %.059, %58
  %61 = trunc i64 %60 to i32
  %62 = icmp sgt i32 %61, 0
  br i1 %62, label %.lr.ph, label %._crit_edge

.lr.ph:                                           ; preds = %59, %65
  %.05574 = phi i32 [ %66, %65 ], [ %61, %59 ]
  %63 = call i32 @crypto_read(ptr noundef %0, ptr noundef nonnull %4, i32 noundef %.05574)
  %64 = icmp slt i32 %63, 0
  br i1 %64, label %.thread, label %65

65:                                               ; preds = %.lr.ph
  %66 = sub nsw i32 %.05574, %63
  %67 = icmp sgt i32 %66, 0
  br i1 %67, label %.lr.ph, label %._crit_edge, !llvm.loop !44

._crit_edge:                                      ; preds = %65, %59
  %.055.lcssa = phi i32 [ %61, %59 ], [ %66, %65 ]
  %.0.lcssa = phi i32 [ undef, %59 ], [ %63, %65 ]
  %.not67 = icmp eq i32 %.055.lcssa, 0
  br i1 %.not67, label %.critedge, label %.thread

.thread:                                          ; preds = %.lr.ph, %._crit_edge
  %.05573 = phi i32 [ %.055.lcssa, %._crit_edge ], [ %.05574, %.lr.ph ]
  %.170 = phi i32 [ %.0.lcssa, %._crit_edge ], [ %63, %.lr.ph ]
  call void @llvm.memset.p0.i64(ptr noundef nonnull align 1 dereferenceable(64) %5, i8 0, i64 64, i1 false)
  %68 = call i32 @av_strerror(i32 noundef %.170, ptr noundef nonnull %5, i64 noundef 64) #6
  call void (ptr, i32, ptr, ...) @av_log(ptr noundef %0, i32 noundef 16, ptr noundef nonnull @.str.15, i32 noundef %.05573, i32 noundef %.170, ptr noundef nonnull %5) #6
  call void @llvm.lifetime.end.p0(i64 32, ptr nonnull %4) #6
  br label %69

.critedge:                                        ; preds = %._crit_edge
  call void @llvm.lifetime.end.p0(i64 32, ptr nonnull %4) #6
  %.pre = load i64, ptr %51, align 8, !tbaa !37
  br label %69

69:                                               ; preds = %57, %.critedge, %.thread, %56, %30, %26, %23, %11
  %.057 = phi i64 [ -29, %11 ], [ -22, %30 ], [ %29, %26 ], [ %21, %23 ], [ %54, %56 ], [ -22, %.thread ], [ %.pre, %.critedge ], [ %.059, %57 ]
  ret i64 %.057
}